target datalayout = "e-m:e-p270:32:32-p271:32:32-p272:64:64-i64:64-i128:128-f80:128-n8:16:32:64-S128"
target triple = "x86_64-pc-linux-gnu"

%"struct.duckdb_zstd::ZDICT_params_t" = type { i32, i32, i32 }

@stderr = external global ptr, align 8
@.str = private unnamed_addr constant [7 x i8] c"\0D%70s\0D\00", align 1
@.str.1 = private unnamed_addr constant [1 x i8] zeroinitializer, align 1
@.str.2 = private unnamed_addr constant [17 x i8] c"statistics ... \0A\00", align 1

; Function Attrs: inlinehint mustprogress nounwind uwtable
define internal noundef i32 @_ZN11duckdb_zstdL10MEM_swap32Ej(i32 noundef %0) #9 {
  %2 = alloca i32, align 4
  store i32 %0, ptr %2, align 4, !tbaa !13
  %3 = load i32, ptr %2, align 4, !tbaa !13
  %4 = call i32 @llvm.bswap.i32(i32 %3)
  ret i32 %4
}

; Function Attrs: inlinehint mustprogress nounwind uwtable
define internal void @_ZN11duckdb_zstdL11MEM_write32EPvj(ptr noundef %0, i32 noundef %1) #9 {
  %3 = alloca ptr, align 8
  %4 = alloca i32, align 4
  store ptr %0, ptr %3, align 8, !tbaa !7
  store i32 %1, ptr %4, align 4, !tbaa !13
  %5 = load i32, ptr %4, align 4, !tbaa !13
  %6 = load ptr, ptr %3, align 8, !tbaa !7
  store i32 %5, ptr %6, align 1, !tbaa !13
  ret void
}

; Function Attrs: inlinehint mustprogress nounwind uwtable
define internal noundef i32 @_ZN11duckdb_zstdL18MEM_isLittleEndianEv() #9 {
  ret i32 1
}

; Function Attrs: mustprogress nounwind uwtable
define internal noundef i32 @_ZN11duckdb_zstdL11ERR_isErrorEm(i64 noundef %0) #1 {
  %2 = alloca i64, align 8
  store i64 %0, ptr %2, align 8, !tbaa !3
  %3 = load i64, ptr %2, align 8, !tbaa !3
  %4 = icmp ugt i64 %3, -120
  %5 = zext i1 %4 to i32
  ret i32 %5
}

; Function Attrs: inlinehint mustprogress uwtable
define internal void @_ZN11duckdb_zstdL13MEM_writeLE32EPvj(ptr noundef %0, i32 noundef %1) #2 {
  %3 = alloca ptr, align 8
  %4 = alloca i32, align 4
  store ptr %0, ptr %3, align 8, !tbaa !7
  store i32 %1, ptr %4, align 4, !tbaa !13
  %5 = call noundef i32 @_ZN11duckdb_zstdL18MEM_isLittleEndianEv()
  %6 = icmp ne i32 %5, 0
  br i1 %6, label %7, label %10

7:                                                ; preds = %2
  %8 = load ptr, ptr %3, align 8, !tbaa !7
  %9 = load i32, ptr %4, align 4, !tbaa !13
  call void @_ZN11duckdb_zstdL11MEM_write32EPvj(ptr noundef %8, i32 noundef %9)
  br label %14

10:                                               ; preds = %2
  %11 = load ptr, ptr %3, align 8, !tbaa !7
  %12 = load i32, ptr %4, align 4, !tbaa !13
  %13 = call noundef i32 @_ZN11duckdb_zstdL10MEM_swap32Ej(i32 noundef %12)
  call void @_ZN11duckdb_zstdL11MEM_write32EPvj(ptr noundef %11, i32 noundef %13)
  br label %14

14:                                               ; preds = %10, %7
  ret void
}

; Function Attrs: mustprogress uwtable
define noundef i32 @_ZN11duckdb_zstd13ZDICT_isErrorEm(i64 noundef %0) #0 {
  %2 = alloca i64, align 8
  store i64 %0, ptr %2, align 8, !tbaa !3
  %3 = load i64, ptr %2, align 8, !tbaa !3
  %4 = call noundef i32 @_ZN11duckdb_zstdL11ERR_isErrorEm(i64 noundef %3)
  ret i32 %4
}

; Function Attrs: mustprogress uwtable
define internal noundef i64 @_ZN11duckdb_zstdL41ZDICT_addEntropyTablesFromBuffer_advancedEPvmmPKvPKmjNS_14ZDICT_params_tE(ptr noundef %0, i64 noundef %1, i64 noundef %2, ptr noundef %3, ptr noundef %4, i32 noundef %5, ptr noundef byval(%"struct.duckdb_zstd::ZDICT_params_t") align 8 %6) #0 {
  %8 = alloca i64, align 8
  %9 = alloca ptr, align 8
  %10 = alloca i64, align 8
  %11 = alloca i64, align 8
  %12 = alloca ptr, align 8
  %13 = alloca ptr, align 8
  %14 = alloca i32, align 4
  %15 = alloca i32, align 4
  %16 = alloca i32, align 4
  %17 = alloca i64, align 8
  %18 = alloca i64, align 8
  %19 = alloca i32, align 4
  %20 = alloca i64, align 8
  %21 = alloca i32, align 4
  %22 = alloca i32, align 4
  store ptr %0, ptr %9, align 8, !tbaa !7
  store i64 %1, ptr %10, align 8, !tbaa !3
  store i64 %2, ptr %11, align 8, !tbaa !3
  store ptr %3, ptr %12, align 8, !tbaa !7
  store ptr %4, ptr %13, align 8, !tbaa !11
  store i32 %5, ptr %14, align 4, !tbaa !13
  call void @llvm.lifetime.start.p0(i64 4, ptr %15) #11
  %23 = getelementptr inbounds nuw %"struct.duckdb_zstd::ZDICT_params_t", ptr %6, i32 0, i32 0
  %24 = load i32, ptr %23, align 8, !tbaa !15
  %25 = icmp eq i32 %24, 0
  br i1 %25, label %26, label %27

26:                                               ; preds = %7
  br label %30

27:                                               ; preds = %7
  %28 = getelementptr inbounds nuw %"struct.duckdb_zstd::ZDICT_params_t", ptr %6, i32 0, i32 0
  %29 = load i32, ptr %28, align 8, !tbaa !15
  br label %30

30:                                               ; preds = %27, %26
  %31 = phi i32 [ 3, %26 ], [ %29, %27 ]
  store i32 %31, ptr %15, align 4, !tbaa !13
  call void @llvm.lifetime.start.p0(i64 4, ptr %16) #11
  %32 = getelementptr inbounds nuw %"struct.duckdb_zstd::ZDICT_params_t", ptr %6, i32 0, i32 1
  %33 = load i32, ptr %32, align 4, !tbaa !17
  store i32 %33, ptr %16, align 4, !tbaa !13
  call void @llvm.lifetime.start.p0(i64 8, ptr %17) #11
  store i64 8, ptr %17, align 8, !tbaa !3
  br label %34

34:                                               ; preds = %30
  %35 = load i32, ptr %16, align 4, !tbaa !13
  %36 = icmp uge i32 %35, 2
  br i1 %36, label %37, label %45

37:                                               ; preds = %34
  br label %38

38:                                               ; preds = %37
  %39 = load ptr, ptr @stderr, align 8, !tbaa !19
  %40 = call i32 (ptr, ptr, ...) @fprintf(ptr noundef %39, ptr noundef @.str, ptr noundef @.str.1) #11
  %41 = load ptr, ptr @stderr, align 8, !tbaa !19
  %42 = call i32 @fflush(ptr noundef %41)
  br label %43

43:                                               ; preds = %38
  br label %44

44:                                               ; preds = %43
  br label %45

45:                                               ; preds = %44, %34
  br label %46

46:                                               ; preds = %45
  br label %47

47:                                               ; preds = %46
  br label %48

48:                                               ; preds = %47
  %49 = load i32, ptr %16, align 4, !tbaa !13
  %50 = icmp uge i32 %49, 2
  br i1 %50, label %51, label %59

51:                                               ; preds = %48
  br label %52

52:                                               ; preds = %51
  %53 = load ptr, ptr @stderr, align 8, !tbaa !19
  %54 = call i32 (ptr, ptr, ...) @fprintf(ptr noundef %53, ptr noundef @.str.2) #11
  %55 = load ptr, ptr @stderr, align 8, !tbaa !19
  %56 = call i32 @fflush(ptr noundef %55)
  br label %57

57:                                               ; preds = %52
  br label %58

58:                                               ; preds = %57
  br label %59

59:                                               ; preds = %58, %48
  br label %60

60:                                               ; preds = %59
  br label %61

61:                                               ; preds = %60
  call void @llvm.lifetime.start.p0(i64 8, ptr %18) #11
  %62 = load ptr, ptr %9, align 8, !tbaa !7
  %63 = load i64, ptr %17, align 8, !tbaa !3
  %64 = getelementptr inbounds nuw i8, ptr %62, i64 %63
  %65 = load i64, ptr %11, align 8, !tbaa !3
  %66 = load i64, ptr %17, align 8, !tbaa !3
  %67 = sub i64 %65, %66
  %68 = load i32, ptr %15, align 4, !tbaa !13
  %69 = load ptr, ptr %12, align 8, !tbaa !7
  %70 = load ptr, ptr %13, align 8, !tbaa !11
  %71 = load i32, ptr %14, align 4, !tbaa !13
  %72 = load ptr, ptr %9, align 8, !tbaa !7
  %73 = load i64, ptr %11, align 8, !tbaa !3
  %74 = getelementptr inbounds nuw i8, ptr %72, i64 %73
  %75 = load i64, ptr %10, align 8, !tbaa !3
  %76 = sub i64 0, %75
  %77 = getelementptr inbounds i8, ptr %74, i64 %76
  %78 = load i64, ptr %10, align 8, !tbaa !3
  %79 = load i32, ptr %16, align 4, !tbaa !13
  %80 = call noundef i64 @_ZN11duckdb_zstdL20ZDICT_analyzeEntropyEPvmiPKvPKmjS2_mj(ptr noundef %64, i64 noundef %67, i32 noundef %68, ptr noundef %69, ptr noundef %70, i32 noundef %71, ptr noundef %77, i64 noundef %78, i32 noundef %79)
  store i64 %80, ptr %18, align 8, !tbaa !3
  %81 = load i64, ptr %18, align 8, !tbaa !3
  %82 = call noundef i32 @_ZN11duckdb_zstd13ZDICT_isErrorEm(i64 noundef %81)
  %83 = icmp ne i32 %82, 0
  br i1 %83, label %84, label %86

84:                                               ; preds = %61
  %85 = load i64, ptr %18, align 8, !tbaa !3
  store i64 %85, ptr %8, align 8
  store i32 1, ptr %19, align 4
  br label %90

86:                                               ; preds = %61
  %87 = load i64, ptr %18, align 8, !tbaa !3
  %88 = load i64, ptr %17, align 8, !tbaa !3
  %89 = add i64 %88, %87
  store i64 %89, ptr %17, align 8, !tbaa !3
  store i32 0, ptr %19, align 4
  br label %90

90:                                               ; preds = %86, %84
  call void @llvm.lifetime.end.p0(i64 8, ptr %18) #11
  %91 = load i32, ptr %19, align 4
  switch i32 %91, label %149 [
    i32 0, label %92
  ]

92:                                               ; preds = %90
  %93 = load ptr, ptr %9, align 8, !tbaa !7
  call void @_ZN11duckdb_zstdL13MEM_writeLE32EPvj(ptr noundef %93, i32 noundef -332356553)
  call void @llvm.lifetime.start.p0(i64 8, ptr %20) #11
  %94 = load ptr, ptr %9, align 8, !tbaa !7
  %95 = load i64, ptr %11, align 8, !tbaa !3
  %96 = getelementptr inbounds nuw i8, ptr %94, i64 %95
  %97 = load i64, ptr %10, align 8, !tbaa !3
  %98 = sub i64 0, %97
  %99 = getelementptr inbounds i8, ptr %96, i64 %98
  %100 = load i64, ptr %10, align 8, !tbaa !3
  %101 = call noundef i64 @_ZN11duckdb_zstd5XXH64EPKvmy(ptr noundef %99, i64 noundef %100, i64 noundef 0)
  store i64 %101, ptr %20, align 8, !tbaa !3
  call void @llvm.lifetime.start.p0(i64 4, ptr %21) #11
  %102 = load i64, ptr %20, align 8, !tbaa !3
  %103 = urem i64 %102, 2147450880
  %104 = add i64 %103, 32768
  %105 = trunc i64 %104 to i32
  store i32 %105, ptr %21, align 4, !tbaa !13
  call void @llvm.lifetime.start.p0(i64 4, ptr %22) #11
  %106 = getelementptr inbounds nuw %"struct.duckdb_zstd::ZDICT_params_t", ptr %6, i32 0, i32 2
  %107 = load i32, ptr %106, align 8, !tbaa !18
  %108 = icmp ne i32 %107, 0
  br i1 %108, label %109, label %112

109:                                              ; preds = %92
  %110 = getelementptr inbounds nuw %"struct.duckdb_zstd::ZDICT_params_t", ptr %6, i32 0, i32 2
  %111 = load i32, ptr %110, align 8, !tbaa !18
  br label %114

112:                                              ; preds = %92
  %113 = load i32, ptr %21, align 4, !tbaa !13
  br label %114

114:                                              ; preds = %112, %109
  %115 = phi i32 [ %111, %109 ], [ %113, %112 ]
  store i32 %115, ptr %22, align 4, !tbaa !13
  %116 = load ptr, ptr %9, align 8, !tbaa !7
  %117 = getelementptr inbounds i8, ptr %116, i64 4
  %118 = load i32, ptr %22, align 4, !tbaa !13
  call void @_ZN11duckdb_zstdL13MEM_writeLE32EPvj(ptr noundef %117, i32 noundef %118)
  call void @llvm.lifetime.end.p0(i64 4, ptr %22) #11
  call void @llvm.lifetime.end.p0(i64 4, ptr %21) #11
  call void @llvm.lifetime.end.p0(i64 8, ptr %20) #11
  %119 = load i64, ptr %17, align 8, !tbaa !3
  %120 = load i64, ptr %10, align 8, !tbaa !3
  %121 = add i64 %119, %120
  %122 = load i64, ptr %11, align 8, !tbaa !3
  %123 = icmp ult i64 %121, %122
  br i1 %123, label %124, label %135

124:                                              ; preds = %114
  %125 = load ptr, ptr %9, align 8, !tbaa !7
  %126 = load i64, ptr %17, align 8, !tbaa !3
  %127 = getelementptr inbounds nuw i8, ptr %125, i64 %126
  %128 = load ptr, ptr %9, align 8, !tbaa !7
  %129 = load i64, ptr %11, align 8, !tbaa !3
  %130 = getelementptr inbounds nuw i8, ptr %128, i64 %129
  %131 = load i64, ptr %10, align 8, !tbaa !3
  %132 = sub i64 0, %131
  %133 = getelementptr inbounds i8, ptr %130, i64 %132
  %134 = load i64, ptr %10, align 8, !tbaa !3
  call void @llvm.memmove.p0.p0.i64(ptr align 1 %127, ptr align 1 %133, i64 %134, i1 false)
  br label %135

135:                                              ; preds = %124, %114
  %136 = load i64, ptr %11, align 8, !tbaa !3
  %137 = load i64, ptr %17, align 8, !tbaa !3
  %138 = load i64, ptr %10, align 8, !tbaa !3
  %139 = add i64 %137, %138
  %140 = icmp ult i64 %136, %139
  br i1 %140, label %141, label %143

141:                                              ; preds = %135
  %142 = load i64, ptr %11, align 8, !tbaa !3
  br label %147

143:                                              ; preds = %135
  %144 = load i64, ptr %17, align 8, !tbaa !3
  %145 = load i64, ptr %10, align 8, !tbaa !3
  %146 = add i64 %144, %145
  br label %147

147:                                              ; preds = %143, %141
  %148 = phi i64 [ %142, %141 ], [ %146, %143 ]
  store i64 %148, ptr %8, align 8
  store i32 1, ptr %19, align 4
  br label %149

149:                                              ; preds = %147, %90
  call void @llvm.lifetime.end.p0(i64 8, ptr %17) #11
  call void @llvm.lifetime.end.p0(i64 4, ptr %16) #11
  call void @llvm.lifetime.end.p0(i64 4, ptr %15) #11
  %150 = load i64, ptr %8, align 8
  ret i64 %150
}