; Function Attrs: mustprogress uwtable
define internal fastcc noundef i64 @_ZN11duckdb_zstdL41ZDICT_addEntropyTablesFromBuffer_advancedEPvmmPKvPKmjNS_14ZDICT_params_tE(ptr noundef %0, i64 noundef %1, i64 noundef %2, ptr noundef %3, ptr noundef readonly captures(none) %4, i32 noundef %5, ptr noundef readonly byval(%"struct.duckdb_zstd::ZDICT_params_t") align 8 captures(none) %6) unnamed_addr #1 {
  %8 = load i32, ptr %6, align 8, !tbaa !7
  %9 = icmp eq i32 %8, 0
  %10 = select i1 %9, i32 3, i32 %8
  %11 = getelementptr inbounds nuw i8, ptr %6, i64 4
  %12 = load i32, ptr %11, align 4, !tbaa !9
  %13 = icmp ugt i32 %12, 1
  br i1 %13, label %14, label %.critedge

14:                                               ; preds = %7
  %15 = load ptr, ptr @stderr, align 8, !tbaa !11
  %16 = tail call i32 (ptr, ptr, ...) @fprintf(ptr noundef %15, ptr noundef nonnull @.str, ptr noundef nonnull @.str.1) #17
  %17 = load ptr, ptr @stderr, align 8, !tbaa !11
  %18 = tail call i32 @fflush(ptr noundef %17)
  %19 = load ptr, ptr @stderr, align 8, !tbaa !11
  %20 = tail call i64 @fwrite(ptr nonnull @.str.2, i64 16, i64 1, ptr %19) #18
  %21 = load ptr, ptr @stderr, align 8, !tbaa !11
  %22 = tail call i32 @fflush(ptr noundef %21)
  br label %.critedge

.critedge:                                        ; preds = %7, %14
  %23 = getelementptr inbounds nuw i8, ptr %0, i64 8
  %24 = add i64 %2, -8
  %25 = getelementptr inbounds nuw i8, ptr %0, i64 %2
  %26 = sub i64 0, %1
  %27 = getelementptr inbounds i8, ptr %25, i64 %26
  %28 = tail call fastcc noundef i64 @_ZN11duckdb_zstdL20ZDICT_analyzeEntropyEPvmiPKvPKmjS2_mj(ptr noundef nonnull %23, i64 noundef %24, i32 noundef %10, ptr noundef %3, ptr noundef %4, i32 noundef %5, ptr noundef %27, i64 noundef %1, i32 noundef %12)
  %29 = icmp ult i64 %28, -119
  %30 = add i64 %28, 8
  br i1 %29, label %31, label %46

31:                                               ; preds = %.critedge
  store i32 -332356553, ptr %0, align 1, !tbaa !3
  %32 = tail call noundef i64 @_ZN11duckdb_zstd5XXH64EPKvmy(ptr noundef nonnull %27, i64 noundef %1, i64 noundef 0)
  %33 = urem i64 %32, 2147450880
  %34 = trunc nuw nsw i64 %33 to i32
  %35 = add nuw nsw i32 %34, 32768
  %36 = getelementptr inbounds nuw i8, ptr %6, i64 8
  %37 = load i32, ptr %36, align 8, !tbaa !10
  %.not46 = icmp eq i32 %37, 0
  %38 = select i1 %.not46, i32 %35, i32 %37
  %39 = getelementptr inbounds nuw i8, ptr %0, i64 4
  store i32 %38, ptr %39, align 1, !tbaa !3
  %40 = add i64 %30, %1
  %41 = icmp ult i64 %40, %2
  br i1 %41, label %42, label %44

42:                                               ; preds = %31
  %43 = getelementptr inbounds nuw i8, ptr %0, i64 %30
  tail call void @llvm.memmove.p0.p0.i64(ptr nonnull align 1 %43, ptr nonnull align 1 %27, i64 %1, i1 false)
  br label %44

44:                                               ; preds = %42, %31
  %45 = tail call i64 @llvm.umin.i64(i64 %2, i64 %40)
  br label %46

46:                                               ; preds = %.critedge, %44
  %.1 = phi i64 [ %45, %44 ], [ %28, %.critedge ]
  ret i64 %.1
}